target datalayout = "e-m:e-p270:32:32-p271:32:32-p272:64:64-i64:64-i128:128-f80:128-n8:16:32:64-S128"
target triple = "x86_64-pc-linux-gnu"

%struct.ident_t = type { i32, i32, i32, i32, ptr }
%struct.Qureg = type { i32, i32, i32, i64, i64, i32, i32, %struct.ComplexArray, %struct.ComplexArray, %struct.ComplexArray, ptr, ptr, ptr, ptr, ptr, ptr }
%struct.ComplexArray = type { ptr, ptr }

@3 = private unnamed_addr constant %struct.ident_t { i32 0, i32 2, i32 0, i32 22, ptr @0 }, align 8

; Function Attrs: nounwind uwtable
define void @densmatr_mixTwoQubitDepolarisingLocal(ptr noundef byval(%struct.Qureg) align 8 %0, i32 noundef %1, i32 noundef %2, double noundef %3, double noundef %4) #0 {
  %6 = alloca i32, align 4
  %7 = alloca i32, align 4
  %8 = alloca double, align 8
  %9 = alloca double, align 8
  %10 = alloca i64, align 8
  %11 = alloca i64, align 8
  %12 = alloca i64, align 8
  %13 = alloca i64, align 8
  %14 = alloca i64, align 8
  %15 = alloca i64, align 8
  %16 = alloca i64, align 8
  store i32 %1, ptr %6, align 4, !tbaa !8
  store i32 %2, ptr %7, align 4, !tbaa !8
  store double %3, ptr %8, align 8, !tbaa !10
  store double %4, ptr %9, align 8, !tbaa !10
  call void @llvm.lifetime.start.p0(i64 8, ptr %10) #3
  %17 = getelementptr inbounds nuw %struct.Qureg, ptr %0, i32 0, i32 3
  %18 = load i64, ptr %17, align 8, !tbaa !12
  store i64 %18, ptr %10, align 8, !tbaa !4
  call void @llvm.lifetime.start.p0(i64 8, ptr %11) #3
  %19 = load i32, ptr %6, align 4, !tbaa !8
  %20 = zext i32 %19 to i64
  %21 = shl i64 1, %20
  store i64 %21, ptr %11, align 8, !tbaa !4
  call void @llvm.lifetime.start.p0(i64 8, ptr %12) #3
  %22 = load i32, ptr %6, align 4, !tbaa !8
  %23 = getelementptr inbounds nuw %struct.Qureg, ptr %0, i32 0, i32 1
  %24 = load i32, ptr %23, align 4, !tbaa !18
  %25 = add nsw i32 %22, %24
  %26 = zext i32 %25 to i64
  %27 = shl i64 1, %26
  store i64 %27, ptr %12, align 8, !tbaa !4
  call void @llvm.lifetime.start.p0(i64 8, ptr %13) #3
  %28 = load i64, ptr %11, align 8, !tbaa !4
  %29 = load i64, ptr %12, align 8, !tbaa !4
  %30 = or i64 %28, %29
  store i64 %30, ptr %13, align 8, !tbaa !4
  call void @llvm.lifetime.start.p0(i64 8, ptr %14) #3
  %31 = load i32, ptr %7, align 4, !tbaa !8
  %32 = zext i32 %31 to i64
  %33 = shl i64 1, %32
  store i64 %33, ptr %14, align 8, !tbaa !4
  call void @llvm.lifetime.start.p0(i64 8, ptr %15) #3
  %34 = load i32, ptr %7, align 4, !tbaa !8
  %35 = getelementptr inbounds nuw %struct.Qureg, ptr %0, i32 0, i32 1
  %36 = load i32, ptr %35, align 4, !tbaa !18
  %37 = add nsw i32 %34, %36
  %38 = zext i32 %37 to i64
  %39 = shl i64 1, %38
  store i64 %39, ptr %15, align 8, !tbaa !4
  call void @llvm.lifetime.start.p0(i64 8, ptr %16) #3
  %40 = load i64, ptr %14, align 8, !tbaa !4
  %41 = load i64, ptr %15, align 8, !tbaa !4
  %42 = or i64 %40, %41
  store i64 %42, ptr %16, align 8, !tbaa !4
  call void (ptr, i32, ptr, ...) @__kmpc_fork_call(ptr @3, i32 6, ptr @densmatr_mixTwoQubitDepolarisingLocal.omp_outlined, ptr %10, ptr %0, ptr %13, ptr %16, ptr %8, ptr %9)
  call void @llvm.lifetime.end.p0(i64 8, ptr %16) #3
  call void @llvm.lifetime.end.p0(i64 8, ptr %15) #3
  call void @llvm.lifetime.end.p0(i64 8, ptr %14) #3
  call void @llvm.lifetime.end.p0(i64 8, ptr %13) #3
  call void @llvm.lifetime.end.p0(i64 8, ptr %12) #3
  call void @llvm.lifetime.end.p0(i64 8, ptr %11) #3
  call void @llvm.lifetime.end.p0(i64 8, ptr %10) #3
  ret void
}