; Function Attrs: nounwind uwtable
define void @densmatr_mixTwoQubitDepolarisingLocal(ptr noundef byval(%struct.Qureg) align 8 %0, i32 noundef %1, i32 noundef %2, double noundef %3, double noundef %4) local_unnamed_addr #1 {
  %6 = alloca double, align 8
  %7 = alloca double, align 8
  %8 = alloca i64, align 8
  %9 = alloca i64, align 8
  %10 = alloca i64, align 8
  store double %3, ptr %6, align 8, !tbaa !4
  store double %4, ptr %7, align 8, !tbaa !4
  call void @llvm.lifetime.start.p0(i64 8, ptr nonnull %8) #4
  %11 = getelementptr inbounds nuw i8, ptr %0, i64 16
  %12 = load i64, ptr %11, align 8, !tbaa !8
  store i64 %12, ptr %8, align 8, !tbaa !16
  %13 = zext nneg i32 %1 to i64
  %14 = shl nuw i64 1, %13
  %15 = getelementptr inbounds nuw i8, ptr %0, i64 4
  %16 = load i32, ptr %15, align 4, !tbaa !17
  %17 = add nsw i32 %16, %1
  %18 = zext nneg i32 %17 to i64
  %19 = shl nuw i64 1, %18
  call void @llvm.lifetime.start.p0(i64 8, ptr nonnull %9) #4
  %20 = or i64 %19, %14
  store i64 %20, ptr %9, align 8, !tbaa !16
  %21 = zext nneg i32 %2 to i64
  %22 = shl nuw i64 1, %21
  %23 = add nsw i32 %16, %2
  %24 = zext nneg i32 %23 to i64
  %25 = shl nuw i64 1, %24
  call void @llvm.lifetime.start.p0(i64 8, ptr nonnull %10) #4
  %26 = or i64 %25, %22
  store i64 %26, ptr %10, align 8, !tbaa !16
  call void (ptr, i32, ptr, ...) @__kmpc_fork_call(ptr nonnull @3, i32 6, ptr nonnull @densmatr_mixTwoQubitDepolarisingLocal.omp_outlined, ptr nonnull %8, ptr nonnull %0, ptr nonnull %9, ptr nonnull %10, ptr nonnull %6, ptr nonnull %7)
  call void @llvm.lifetime.end.p0(i64 8, ptr nonnull %10) #4
  call void @llvm.lifetime.end.p0(i64 8, ptr nonnull %9) #4
  call void @llvm.lifetime.end.p0(i64 8, ptr nonnull %8) #4
  ret void
}